target datalayout = "e-m:e-p270:32:32-p271:32:32-p272:64:64-i64:64-i128:128-f80:128-n8:16:32:64-S128"
target triple = "x86_64-pc-linux-gnu"

%struct.stbrp_context = type { i32, i32, i32, i32, i32, i32, ptr, ptr, [2 x %struct.stbrp_node] }
%struct.stbrp_node = type { i32, i32, ptr }

; Function Attrs: nounwind uwtable
define void @stbrp_setup_allow_out_of_mem(ptr noundef %0, i32 noundef %1) #0 {
  %3 = alloca ptr, align 8
  %4 = alloca i32, align 4
  store ptr %0, ptr %3, align 8, !tbaa !3
  store i32 %1, ptr %4, align 4, !tbaa !8
  %5 = load i32, ptr %4, align 4, !tbaa !8
  %6 = icmp ne i32 %5, 0
  br i1 %6, label %7, label %10

7:                                                ; preds = %2
  %8 = load ptr, ptr %3, align 8, !tbaa !3
  %9 = getelementptr inbounds nuw %struct.stbrp_context, ptr %8, i32 0, i32 2
  store i32 1, ptr %9, align 8, !tbaa !14
  br label %25

10:                                               ; preds = %2
  %11 = load ptr, ptr %3, align 8, !tbaa !3
  %12 = getelementptr inbounds nuw %struct.stbrp_context, ptr %11, i32 0, i32 0
  %13 = load i32, ptr %12, align 8, !tbaa !15
  %14 = load ptr, ptr %3, align 8, !tbaa !3
  %15 = getelementptr inbounds nuw %struct.stbrp_context, ptr %14, i32 0, i32 5
  %16 = load i32, ptr %15, align 4, !tbaa !16
  %17 = add nsw i32 %13, %16
  %18 = sub nsw i32 %17, 1
  %19 = load ptr, ptr %3, align 8, !tbaa !3
  %20 = getelementptr inbounds nuw %struct.stbrp_context, ptr %19, i32 0, i32 5
  %21 = load i32, ptr %20, align 4, !tbaa !16
  %22 = sdiv i32 %18, %21
  %23 = load ptr, ptr %3, align 8, !tbaa !3
  %24 = getelementptr inbounds nuw %struct.stbrp_context, ptr %23, i32 0, i32 2
  store i32 %22, ptr %24, align 8, !tbaa !14
  br label %25

25:                                               ; preds = %10, %7
  ret void
}